; ModuleID = '40/1448.c'
source_filename = "40/1448.c"
target datalayout = "e-m:e-p270:32:32-p271:32:32-p272:64:64-i64:64-f80:128-n8:16:32:64-S128"
target triple = "x86_64-pc-linux-gnu"

@PI = dso_local global double 0x400921FB4D12D84A, align 8
@.str = private unnamed_addr constant [20 x i8] c"%lf %lf %lf %lf %lf\00", align 1
@.str.1 = private unnamed_addr constant [6 x i8] c"%.4lf\00", align 1
@.str.2 = private unnamed_addr constant [14 x i8] c"Invalid input\00", align 1

; Function Attrs: noinline nounwind uwtable
define dso_local i32 @main() #0 {
  %1 = alloca i32, align 4
  %2 = alloca double, align 8
  %3 = alloca double, align 8
  %4 = alloca double, align 8
  %5 = alloca double, align 8
  %6 = alloca double, align 8
  %7 = alloca double, align 8
  %8 = alloca double, align 8
  store i32 0, i32* %1, align 4
  %9 = call i32 (i8*, ...) @__isoc99_scanf(i8* getelementptr inbounds ([20 x i8], [20 x i8]* @.str, i64 0, i64 0), double* %3, double* %4, double* %5, double* %6, double* %7)
  %10 = load double, double* %3, align 8
  %11 = load double, double* %4, align 8
  %12 = fadd double %10, %11
  %13 = load double, double* %5, align 8
  %14 = fadd double %12, %13
  %15 = load double, double* %6, align 8
  %16 = fadd double %14, %15
  %17 = fdiv double %16, 2.000000e+00
  store double %17, double* %8, align 8
  %18 = load double, double* %8, align 8
  %19 = load double, double* %3, align 8
  %20 = fsub double %18, %19
  %21 = load double, double* %8, align 8
  %22 = load double, double* %4, align 8
  %23 = fsub double %21, %22
  %24 = fmul double %20, %23
  %25 = load double, double* %8, align 8
  %26 = load double, double* %5, align 8
  %27 = fsub double %25, %26
  %28 = fmul double %24, %27
  %29 = load double, double* %8, align 8
  %30 = load double, double* %6, align 8
  %31 = fsub double %29, %30
  %32 = fmul double %28, %31
  %33 = load double, double* %3, align 8
  %34 = load double, double* %4, align 8
  %35 = fmul double %33, %34
  %36 = load double, double* %5, align 8
  %37 = fmul double %35, %36
  %38 = load double, double* %6, align 8
  %39 = fmul double %37, %38
  %40 = load double, double* %7, align 8
  %41 = fdiv double %40, 2.000000e+00
  %42 = load double, double* @PI, align 8
  %43 = fmul double %41, %42
  %44 = fdiv double %43, 1.800000e+02
  %45 = call double @cos(double %44) #3
  %46 = fmul double %39, %45
  %47 = load double, double* %7, align 8
  %48 = fdiv double %47, 2.000000e+00
  %49 = load double, double* @PI, align 8
  %50 = fmul double %48, %49
  %51 = fdiv double %50, 1.800000e+02
  %52 = call double @cos(double %51) #3
  %53 = fmul double %46, %52
  %54 = fsub double %32, %53
  %55 = fcmp oge double %54, 0.000000e+00
  br i1 %55, label %56, label %65

56:                                               ; preds = %0
  %57 = load double, double* %3, align 8
  %58 = load double, double* %4, align 8
  %59 = load double, double* %5, align 8
  %60 = load double, double* %6, align 8
  %61 = load double, double* %7, align 8
  %62 = call double @area(double %57, double %58, double %59, double %60, double %61)
  store double %62, double* %2, align 8
  %63 = load double, double* %2, align 8
  %64 = call i32 (i8*, ...) @printf(i8* getelementptr inbounds ([6 x i8], [6 x i8]* @.str.1, i64 0, i64 0), double %63)
  br label %67

65:                                               ; preds = %0
  %66 = call i32 (i8*, ...) @printf(i8* getelementptr inbounds ([14 x i8], [14 x i8]* @.str.2, i64 0, i64 0))
  br label %67

67:                                               ; preds = %65, %56
  ret i32 0
}

declare dso_local i32 @__isoc99_scanf(i8*, ...) #1

; Function Attrs: nounwind
declare dso_local double @cos(double) #2

; Function Attrs: noinline nounwind uwtable
define dso_local double @area(double %0, double %1, double %2, double %3, double %4) #0 {
  %6 = alloca double, align 8
  %7 = alloca double, align 8
  %8 = alloca double, align 8
  %9 = alloca double, align 8
  %10 = alloca double, align 8
  %11 = alloca double, align 8
  %12 = alloca double, align 8
  %13 = alloca double, align 8
  store double %0, double* %6, align 8
  store double %1, double* %7, align 8
  store double %2, double* %8, align 8
  store double %3, double* %9, align 8
  store double %4, double* %10, align 8
  store double 0x400921FB4D12D84A, double* %13, align 8
  %14 = load double, double* %6, align 8
  %15 = load double, double* %7, align 8
  %16 = fadd double %14, %15
  %17 = load double, double* %8, align 8
  %18 = fadd double %16, %17
  %19 = load double, double* %9, align 8
  %20 = fadd double %18, %19
  %21 = fdiv double %20, 2.000000e+00
  store double %21, double* %12, align 8
  %22 = load double, double* %12, align 8
  %23 = load double, double* %6, align 8
  %24 = fsub double %22, %23
  %25 = load double, double* %12, align 8
  %26 = load double, double* %7, align 8
  %27 = fsub double %25, %26
  %28 = fmul double %24, %27
  %29 = load double, double* %12, align 8
  %30 = load double, double* %8, align 8
  %31 = fsub double %29, %30
  %32 = fmul double %28, %31
  %33 = load double, double* %12, align 8
  %34 = load double, double* %9, align 8
  %35 = fsub double %33, %34
  %36 = fmul double %32, %35
  %37 = load double, double* %6, align 8
  %38 = load double, double* %7, align 8
  %39 = fmul double %37, %38
  %40 = load double, double* %8, align 8
  %41 = fmul double %39, %40
  %42 = load double, double* %9, align 8
  %43 = fmul double %41, %42
  %44 = load double, double* %10, align 8
  %45 = fdiv double %44, 2.000000e+00
  %46 = load double, double* %13, align 8
  %47 = fmul double %45, %46
  %48 = fdiv double %47, 1.800000e+02
  %49 = call double @cos(double %48) #3
  %50 = fmul double %43, %49
  %51 = load double, double* %10, align 8
  %52 = fdiv double %51, 2.000000e+00
  %53 = load double, double* %13, align 8
  %54 = fmul double %52, %53
  %55 = fdiv double %54, 1.800000e+02
  %56 = call double @cos(double %55) #3
  %57 = fmul double %50, %56
  %58 = fsub double %36, %57
  %59 = call double @sqrt(double %58) #3
  store double %59, double* %11, align 8
  %60 = load double, double* %11, align 8
  ret double %60
}

declare dso_local i32 @printf(i8*, ...) #1

; Function Attrs: nounwind
declare dso_local double @sqrt(double) #2


!llvm.module.flags = !{!0}
!llvm.ident = !{!1}

!0 = !{i32 1, !"wchar_size", i32 4}
!1 = !{!"clang version 10.0.0-4ubuntu1 "}
