; ModuleID = 'source-C-CXX/39/1448.c'
source_filename = "source-C-CXX/39/1448.c"
target datalayout = "e-m:e-p270:32:32-p271:32:32-p272:64:64-i64:64-f80:128-n8:16:32:64-S128"
target triple = "x86_64-pc-linux-gnu"

@PI = dso_local local_unnamed_addr global double 0x400921FB4D12D84A, align 8
@.str = private unnamed_addr constant [20 x i8] c"%lf %lf %lf %lf %lf\00", align 1
@.str.1 = private unnamed_addr constant [6 x i8] c"%.4lf\00", align 1
@.str.2 = private unnamed_addr constant [14 x i8] c"Invalid input\00", align 1

; Function Attrs: nofree nounwind sspstrong uwtable
define dso_local i32 @main() local_unnamed_addr #0 {
  %1 = alloca double, align 8
  %2 = alloca double, align 8
  %3 = alloca double, align 8
  %4 = alloca double, align 8
  %5 = alloca double, align 8
  %6 = bitcast double* %1 to i8*
  call void @llvm.lifetime.start.p0i8(i64 8, i8* nonnull %6) #5
  %7 = bitcast double* %2 to i8*
  call void @llvm.lifetime.start.p0i8(i64 8, i8* nonnull %7) #5
  %8 = bitcast double* %3 to i8*
  call void @llvm.lifetime.start.p0i8(i64 8, i8* nonnull %8) #5
  %9 = bitcast double* %4 to i8*
  call void @llvm.lifetime.start.p0i8(i64 8, i8* nonnull %9) #5
  %10 = bitcast double* %5 to i8*
  call void @llvm.lifetime.start.p0i8(i64 8, i8* nonnull %10) #5
  %11 = call i32 (i8*, ...) @__isoc99_scanf(i8* getelementptr inbounds ([20 x i8], [20 x i8]* @.str, i64 0, i64 0), double* nonnull %1, double* nonnull %2, double* nonnull %3, double* nonnull %4, double* nonnull %5)
  %12 = load double, double* %1, align 8, !tbaa !5
  %13 = load double, double* %2, align 8, !tbaa !5
  %14 = fadd double %12, %13
  %15 = load double, double* %3, align 8, !tbaa !5
  %16 = fadd double %14, %15
  %17 = load double, double* %4, align 8, !tbaa !5
  %18 = fadd double %16, %17
  %19 = fmul double %18, 5.000000e-01
  %20 = fsub double %19, %12
  %21 = fsub double %19, %13
  %22 = fmul double %20, %21
  %23 = fsub double %19, %15
  %24 = fmul double %23, %22
  %25 = fsub double %19, %17
  %26 = fmul double %25, %24
  %27 = fmul double %12, %13
  %28 = fmul double %27, %15
  %29 = fmul double %28, %17
  %30 = load double, double* %5, align 8, !tbaa !5
  %31 = fmul double %30, 5.000000e-01
  %32 = load double, double* @PI, align 8, !tbaa !5
  %33 = fmul double %31, %32
  %34 = fdiv double %33, 1.800000e+02
  %35 = call double @cos(double %34) #5
  %36 = fmul double %29, %35
  %37 = load double, double* %5, align 8, !tbaa !5
  %38 = fmul double %37, 5.000000e-01
  %39 = load double, double* @PI, align 8, !tbaa !5
  %40 = fmul double %38, %39
  %41 = fdiv double %40, 1.800000e+02
  %42 = call double @cos(double %41) #5
  %43 = fmul double %36, %42
  %44 = fsub double %26, %43
  %45 = fcmp ult double %44, 0.000000e+00
  br i1 %45, label %76, label %46

46:                                               ; preds = %0
  %47 = load double, double* %1, align 8, !tbaa !5
  %48 = load double, double* %2, align 8, !tbaa !5
  %49 = load double, double* %3, align 8, !tbaa !5
  %50 = load double, double* %4, align 8, !tbaa !5
  %51 = load double, double* %5, align 8, !tbaa !5
  %52 = fadd double %47, %48
  %53 = fadd double %52, %49
  %54 = fadd double %53, %50
  %55 = fmul double %54, 5.000000e-01
  %56 = fsub double %55, %47
  %57 = fsub double %55, %48
  %58 = fmul double %56, %57
  %59 = fsub double %55, %49
  %60 = fmul double %59, %58
  %61 = fsub double %55, %50
  %62 = fmul double %61, %60
  %63 = fmul double %47, %48
  %64 = fmul double %63, %49
  %65 = fmul double %64, %50
  %66 = fmul double %51, 5.000000e-01
  %67 = fmul double %66, 0x400921FB4D12D84A
  %68 = fdiv double %67, 1.800000e+02
  %69 = call double @cos(double %68) #5
  %70 = fmul double %65, %69
  %71 = call double @cos(double %68) #5
  %72 = fmul double %70, %71
  %73 = fsub double %62, %72
  %74 = call double @sqrt(double %73) #5
  %75 = call i32 (i8*, ...) @printf(i8* nonnull dereferenceable(1) getelementptr inbounds ([6 x i8], [6 x i8]* @.str.1, i64 0, i64 0), double %74)
  br label %78

76:                                               ; preds = %0
  %77 = call i32 (i8*, ...) @printf(i8* nonnull dereferenceable(1) getelementptr inbounds ([14 x i8], [14 x i8]* @.str.2, i64 0, i64 0))
  br label %78

78:                                               ; preds = %76, %46
  call void @llvm.lifetime.end.p0i8(i64 8, i8* nonnull %10) #5
  call void @llvm.lifetime.end.p0i8(i64 8, i8* nonnull %9) #5
  call void @llvm.lifetime.end.p0i8(i64 8, i8* nonnull %8) #5
  call void @llvm.lifetime.end.p0i8(i64 8, i8* nonnull %7) #5
  call void @llvm.lifetime.end.p0i8(i64 8, i8* nonnull %6) #5
  ret i32 0
}

; Function Attrs: argmemonly mustprogress nofree nosync nounwind willreturn
declare void @llvm.lifetime.start.p0i8(i64 immarg, i8* nocapture) #1

; Function Attrs: nofree nounwind
declare noundef i32 @__isoc99_scanf(i8* nocapture noundef readonly, ...) local_unnamed_addr #2

; Function Attrs: mustprogress nofree nounwind willreturn
declare double @cos(double) local_unnamed_addr #3

; Function Attrs: mustprogress nofree nounwind sspstrong uwtable willreturn
define dso_local double @area(double %0, double %1, double %2, double %3, double %4) local_unnamed_addr #4 {
  %6 = fadd double %0, %1
  %7 = fadd double %6, %2
  %8 = fadd double %7, %3
  %9 = fmul double %8, 5.000000e-01
  %10 = fsub double %9, %0
  %11 = fsub double %9, %1
  %12 = fmul double %10, %11
  %13 = fsub double %9, %2
  %14 = fmul double %13, %12
  %15 = fsub double %9, %3
  %16 = fmul double %15, %14
  %17 = fmul double %0, %1
  %18 = fmul double %17, %2
  %19 = fmul double %18, %3
  %20 = fmul double %4, 5.000000e-01
  %21 = fmul double %20, 0x400921FB4D12D84A
  %22 = fdiv double %21, 1.800000e+02
  %23 = tail call double @cos(double %22) #5
  %24 = fmul double %19, %23
  %25 = tail call double @cos(double %22) #5
  %26 = fmul double %24, %25
  %27 = fsub double %16, %26
  %28 = tail call double @sqrt(double %27) #5
  ret double %28
}

; Function Attrs: nofree nounwind
declare noundef i32 @printf(i8* nocapture noundef readonly, ...) local_unnamed_addr #2

; Function Attrs: argmemonly mustprogress nofree nosync nounwind willreturn
declare void @llvm.lifetime.end.p0i8(i64 immarg, i8* nocapture) #1

; Function Attrs: mustprogress nofree nounwind willreturn
declare double @sqrt(double) local_unnamed_addr #3


!llvm.module.flags = !{!0, !1, !2, !3}
!llvm.ident = !{!4}

!0 = !{i32 1, !"wchar_size", i32 4}
!1 = !{i32 7, !"PIC Level", i32 2}
!2 = !{i32 7, !"PIE Level", i32 2}
!3 = !{i32 7, !"uwtable", i32 1}
!4 = !{!"clang version 13.0.0"}
!5 = !{!6, !6, i64 0}
!6 = !{!"double", !7, i64 0}
!7 = !{!"omnipotent char", !8, i64 0}
!8 = !{!"Simple C/C++ TBAA"}
